target datalayout = "e-m:e-p270:32:32-p271:32:32-p272:64:64-i64:64-i128:128-f80:128-n8:16:32:64-S128"
target triple = "x86_64-unknown-linux-gnu"

%"class.std::basic_string_view" = type { i64, ptr }
%"class.std::__cxx11::basic_string" = type { %"struct.std::__cxx11::basic_string<char>::_Alloc_hider", i64, %union.anon }
%"struct.std::__cxx11::basic_string<char>::_Alloc_hider" = type { ptr }
%union.anon = type { i64, [8 x i8] }
%"class.google::protobuf::Descriptor" = type { %"class.google::protobuf::internal::SymbolBase", i8, i16, i32, ptr, ptr, ptr, ptr, ptr, ptr, ptr, ptr, ptr, ptr, ptr, ptr, ptr, ptr, i32, i32, i32, i32, i32, i32, i32, i32 }
%"class.google::protobuf::internal::SymbolBase" = type { i8 }

; Function Attrs: mustprogress nounwind uwtable
define linkonce_odr hidden noundef ptr @_ZNK6google8protobuf10Descriptor4fileEv(ptr noundef nonnull align 8 dereferenceable(152) %this) #5 comdat align 2 {
entry:
  %this.addr = alloca ptr, align 8
  store ptr %this, ptr %this.addr, align 8
  %this1 = load ptr, ptr %this.addr, align 8
  %file_ = getelementptr inbounds %"class.google::protobuf::Descriptor", ptr %this1, i32 0, i32 5
  %0 = load ptr, ptr %file_, align 8
  ret ptr %0
}

; Function Attrs: mustprogress uwtable
define hidden void @_ZN6google8protobuf8compiler3cpp18QualifiedClassNameB5cxx11EPKNS0_10DescriptorERKNS2_7OptionsE(ptr noalias sret(%"class.std::__cxx11::basic_string") align 8 %agg.result, ptr noundef %d, ptr noundef nonnull align 8 dereferenceable(206) %options) #4 personality ptr @__gxx_personality_v0 {
entry:
  %result.ptr = alloca ptr, align 8
  %d.addr = alloca ptr, align 8
  %options.addr = alloca ptr, align 8
  %agg.tmp = alloca %"class.std::basic_string_view", align 8
  %ref.tmp = alloca %"class.std::__cxx11::basic_string", align 8
  %exn.slot = alloca ptr, align 8
  %ehselector.slot = alloca i32, align 4
  store ptr %agg.result, ptr %result.ptr, align 8
  store ptr %d, ptr %d.addr, align 8
  store ptr %options, ptr %options.addr, align 8
  %0 = load ptr, ptr %d.addr, align 8
  %call = call noundef ptr @_ZNK6google8protobuf10Descriptor4fileEv(ptr noundef nonnull align 8 dereferenceable(152) %0)
  %1 = load ptr, ptr %d.addr, align 8
  call void @_ZN6google8protobuf8compiler3cpp9ClassNameB5cxx11EPKNS0_10DescriptorE(ptr sret(%"class.std::__cxx11::basic_string") align 8 %ref.tmp, ptr noundef %1)
  %call1 = call { i64, ptr } @_ZNKSt7__cxx1112basic_stringIcSt11char_traitsIcESaIcEEcvSt17basic_string_viewIcS2_EEv(ptr noundef nonnull align 8 dereferenceable(32) %ref.tmp) #3
  %2 = getelementptr inbounds { i64, ptr }, ptr %agg.tmp, i32 0, i32 0
  %3 = extractvalue { i64, ptr } %call1, 0
  store i64 %3, ptr %2, align 8
  %4 = getelementptr inbounds { i64, ptr }, ptr %agg.tmp, i32 0, i32 1
  %5 = extractvalue { i64, ptr } %call1, 1
  store ptr %5, ptr %4, align 8
  %6 = load ptr, ptr %options.addr, align 8
  %7 = getelementptr inbounds { i64, ptr }, ptr %agg.tmp, i32 0, i32 0
  %8 = load i64, ptr %7, align 8
  %9 = getelementptr inbounds { i64, ptr }, ptr %agg.tmp, i32 0, i32 1
  %10 = load ptr, ptr %9, align 8
  invoke void @_ZN6google8protobuf8compiler3cpp24QualifiedFileLevelSymbolB5cxx11EPKNS0_14FileDescriptorESt17basic_string_viewIcSt11char_traitsIcEERKNS2_7OptionsE(ptr sret(%"class.std::__cxx11::basic_string") align 8 %agg.result, ptr noundef %call, i64 %8, ptr %10, ptr noundef nonnull align 8 dereferenceable(206) %6)
          to label %invoke.cont unwind label %lpad

invoke.cont:                                      ; preds = %entry
  call void @_ZNSt7__cxx1112basic_stringIcSt11char_traitsIcESaIcEED1Ev(ptr noundef nonnull align 8 dereferenceable(32) %ref.tmp) #3
  ret void

lpad:                                             ; preds = %entry
  %11 = landingpad { ptr, i32 }
          cleanup
  %12 = extractvalue { ptr, i32 } %11, 0
  store ptr %12, ptr %exn.slot, align 8
  %13 = extractvalue { ptr, i32 } %11, 1
  store i32 %13, ptr %ehselector.slot, align 4
  call void @_ZNSt7__cxx1112basic_stringIcSt11char_traitsIcESaIcEED1Ev(ptr noundef nonnull align 8 dereferenceable(32) %ref.tmp) #3
  br label %eh.resume

eh.resume:                                        ; preds = %lpad
  %exn = load ptr, ptr %exn.slot, align 8
  %sel = load i32, ptr %ehselector.slot, align 4
  %lpad.val = insertvalue { ptr, i32 } poison, ptr %exn, 0
  %lpad.val2 = insertvalue { ptr, i32 } %lpad.val, i32 %sel, 1
  resume { ptr, i32 } %lpad.val2
}

; Function Attrs: mustprogress uwtable
define hidden void @_ZN6google8protobuf8compiler3cpp20FieldMessageTypeNameB5cxx11EPKNS0_15FieldDescriptorERKNS2_7OptionsE(ptr noalias sret(%"class.std::__cxx11::basic_string") align 8 %agg.result, ptr noundef %field, ptr noundef nonnull align 8 dereferenceable(206) %options) #4 {
entry:
  %result.ptr = alloca ptr, align 8
  %field.addr = alloca ptr, align 8
  %options.addr = alloca ptr, align 8
  store ptr %agg.result, ptr %result.ptr, align 8
  store ptr %field, ptr %field.addr, align 8
  store ptr %options, ptr %options.addr, align 8
  %0 = load ptr, ptr %field.addr, align 8
  %call = call noundef ptr @_ZNK6google8protobuf15FieldDescriptor12message_typeEv(ptr noundef nonnull align 8 dereferenceable(88) %0)
  %1 = load ptr, ptr %options.addr, align 8
  call void @_ZN6google8protobuf8compiler3cpp18QualifiedClassNameB5cxx11EPKNS0_10DescriptorERKNS2_7OptionsE(ptr sret(%"class.std::__cxx11::basic_string") align 8 %agg.result, ptr noundef %call, ptr noundef nonnull align 8 dereferenceable(206) %1)
  ret void
}