; Function Attrs: mustprogress uwtable
define hidden void @_ZN6google8protobuf8compiler3cpp20FieldMessageTypeNameB5cxx11EPKNS0_15FieldDescriptorERKNS2_7OptionsE(ptr noalias sret(%"class.std::__cxx11::basic_string") align 8 %agg.result, ptr noundef nonnull %field, ptr nocapture noundef nonnull readnone align 8 dereferenceable(206) %options) local_unnamed_addr #4 personality ptr @__gxx_personality_v0 {
entry:
  %ref.tmp.i = alloca %"class.std::__cxx11::basic_string", align 8
  %call = tail call noundef ptr @_ZNK6google8protobuf15FieldDescriptor12message_typeEv(ptr noundef nonnull align 8 dereferenceable(88) %field)
  call void @llvm.lifetime.start.p0(i64 32, ptr nonnull %ref.tmp.i)
  %file_.i.i = getelementptr inbounds i8, ptr %call, i64 16
  %0 = load ptr, ptr %file_.i.i, align 8, !noalias !130
  call void @_ZN6google8protobuf8compiler3cpp9ClassNameB5cxx11EPKNS0_10DescriptorE(ptr nonnull sret(%"class.std::__cxx11::basic_string") align 8 %ref.tmp.i, ptr noundef nonnull %call), !noalias !130
  %call1.i = call { i64, ptr } @_ZNKSt7__cxx1112basic_stringIcSt11char_traitsIcESaIcEEcvSt17basic_string_viewIcS2_EEv(ptr noundef nonnull align 8 dereferenceable(32) %ref.tmp.i) #26, !noalias !130
  %1 = extractvalue { i64, ptr } %call1.i, 0
  %2 = extractvalue { i64, ptr } %call1.i, 1
  invoke void @_ZN6google8protobuf8compiler3cpp24QualifiedFileLevelSymbolB5cxx11EPKNS0_14FileDescriptorESt17basic_string_viewIcSt11char_traitsIcEERKNS2_7OptionsE(ptr sret(%"class.std::__cxx11::basic_string") align 8 %agg.result, ptr noundef %0, i64 %1, ptr %2, ptr nonnull align 8 poison)
          to label %_ZN6google8protobuf8compiler3cpp18QualifiedClassNameB5cxx11EPKNS0_10DescriptorERKNS2_7OptionsE.exit unwind label %lpad.i

lpad.i:                                           ; preds = %entry
  %3 = landingpad { ptr, i32 }
          cleanup
  call void @_ZNSt7__cxx1112basic_stringIcSt11char_traitsIcESaIcEED1Ev(ptr noundef nonnull align 8 dereferenceable(32) %ref.tmp.i) #26
  resume { ptr, i32 } %3

_ZN6google8protobuf8compiler3cpp18QualifiedClassNameB5cxx11EPKNS0_10DescriptorERKNS2_7OptionsE.exit: ; preds = %entry
  call void @_ZNSt7__cxx1112basic_stringIcSt11char_traitsIcESaIcEED1Ev(ptr noundef nonnull align 8 dereferenceable(32) %ref.tmp.i) #26
  call void @llvm.lifetime.end.p0(i64 32, ptr nonnull %ref.tmp.i)
  ret void
}